target datalayout = "e-m:e-p270:32:32-p271:32:32-p272:64:64-i64:64-i128:128-f80:128-n8:16:32:64-S128"
target triple = "x86_64-pc-linux-gnu"

%struct._urb_info_t = type { i16, i16, i8, i32, i8, i32, i8, i8, i8, i32, ptr, ptr }
%struct._usb_conv_info_t = type { i8, i16, i16, i16, i16, i8, i16, i32, i16, i8, ptr, ptr, i32, ptr }

@hf_as_if_gen_term_link = internal global i32 0, align 4
@hf_as_if_gen_delay = internal global i32 0, align 4
@hf_as_if_gen_wformattag = internal global i32 0, align 4
@hf_as_if_gen_controls = internal global i32 0, align 4
@hf_as_if_gen_formattype = internal global i32 0, align 4
@hf_as_if_gen_formats = internal global i32 0, align 4
@hf_as_if_gen_nrchannels = internal global i32 0, align 4
@hf_as_if_gen_bmchannelconfig = internal global i32 0, align 4
@hf_as_if_gen_channelnames = internal global i32 0, align 4
@ett_as_if_gen_controls = internal global i32 0, align 4
@ett_as_if_gen_formats = internal global i32 0, align 4
@ett_as_if_gen_bmchannelconfig = internal global i32 0, align 4
@dissect_as_if_general_body.v2_controls = internal constant [4 x ptr] [ptr @hf_as_if_gen_controls_active, ptr @hf_as_if_gen_controls_valid, ptr @hf_as_if_gen_controls_rsv, ptr null], align 16
@dissect_as_if_general_body.v2_formats_type_ii = internal constant [7 x ptr] [ptr @hf_as_if_gen_formats_ii_d0, ptr @hf_as_if_gen_formats_ii_d1, ptr @hf_as_if_gen_formats_ii_d2, ptr @hf_as_if_gen_formats_ii_d3, ptr @hf_as_if_gen_formats_ii_rsv, ptr @hf_as_if_gen_formats_ii_d31, ptr null], align 16

; Function Attrs: null_pointer_is_valid sspstrong uwtable
define internal i32 @dissect_as_if_general_body(ptr noundef %0, i32 noundef %1, ptr noundef %2, ptr noundef %3, ptr noundef %4) #1 {
  %6 = alloca ptr, align 8
  %7 = alloca i32, align 4
  %8 = alloca ptr, align 8
  %9 = alloca ptr, align 8
  %10 = alloca ptr, align 8
  %11 = alloca i32, align 4
  %12 = alloca i8, align 1
  %13 = alloca ptr, align 8
  store ptr %0, ptr %6, align 8
  store i32 %1, ptr %7, align 4
  store ptr %2, ptr %8, align 8
  store ptr %3, ptr %9, align 8
  store ptr %4, ptr %10, align 8
  call void @llvm.lifetime.start.p0(i64 4, ptr %11) #11
  %14 = load i32, ptr %7, align 4
  store i32 %14, ptr %11, align 4
  %15 = load ptr, ptr %10, align 8
  %16 = getelementptr inbounds nuw %struct._urb_info_t, ptr %15, i32 0, i32 11
  %17 = load ptr, ptr %16, align 8
  %18 = getelementptr inbounds nuw %struct._usb_conv_info_t, ptr %17, i32 0, i32 4
  %19 = load i16, ptr %18, align 8
  %20 = zext i16 %19 to i32
  %21 = icmp eq i32 %20, 0
  br i1 %21, label %22, label %44

22:                                               ; preds = %5
  %23 = load ptr, ptr %9, align 8
  %24 = load i32, ptr @hf_as_if_gen_term_link, align 4
  %25 = load ptr, ptr %6, align 8
  %26 = load i32, ptr %7, align 4
  %27 = call ptr @proto_tree_add_item(ptr noundef %23, i32 noundef %24, ptr noundef %25, i32 noundef %26, i32 noundef 1, i32 noundef -2147483648)
  %28 = load i32, ptr %7, align 4
  %29 = add i32 %28, 1
  store i32 %29, ptr %7, align 4
  %30 = load ptr, ptr %9, align 8
  %31 = load i32, ptr @hf_as_if_gen_delay, align 4
  %32 = load ptr, ptr %6, align 8
  %33 = load i32, ptr %7, align 4
  %34 = call ptr @proto_tree_add_item(ptr noundef %30, i32 noundef %31, ptr noundef %32, i32 noundef %33, i32 noundef 1, i32 noundef -2147483648)
  %35 = load i32, ptr %7, align 4
  %36 = add i32 %35, 1
  store i32 %36, ptr %7, align 4
  %37 = load ptr, ptr %9, align 8
  %38 = load i32, ptr @hf_as_if_gen_wformattag, align 4
  %39 = load ptr, ptr %6, align 8
  %40 = load i32, ptr %7, align 4
  %41 = call ptr @proto_tree_add_item(ptr noundef %37, i32 noundef %38, ptr noundef %39, i32 noundef %40, i32 noundef 2, i32 noundef -2147483648)
  %42 = load i32, ptr %7, align 4
  %43 = add i32 %42, 2
  store i32 %43, ptr %7, align 4
  br label %128

44:                                               ; preds = %5
  %45 = load ptr, ptr %10, align 8
  %46 = getelementptr inbounds nuw %struct._urb_info_t, ptr %45, i32 0, i32 11
  %47 = load ptr, ptr %46, align 8
  %48 = getelementptr inbounds nuw %struct._usb_conv_info_t, ptr %47, i32 0, i32 4
  %49 = load i16, ptr %48, align 8
  %50 = zext i16 %49 to i32
  %51 = icmp eq i32 %50, 32
  br i1 %51, label %52, label %127

52:                                               ; preds = %44
  call void @llvm.lifetime.start.p0(i64 1, ptr %12) #11
  call void @llvm.lifetime.start.p0(i64 8, ptr %13) #11
  %53 = load ptr, ptr %9, align 8
  %54 = load i32, ptr @hf_as_if_gen_term_link, align 4
  %55 = load ptr, ptr %6, align 8
  %56 = load i32, ptr %7, align 4
  %57 = call ptr @proto_tree_add_item(ptr noundef %53, i32 noundef %54, ptr noundef %55, i32 noundef %56, i32 noundef 1, i32 noundef -2147483648)
  %58 = load i32, ptr %7, align 4
  %59 = add i32 %58, 1
  store i32 %59, ptr %7, align 4
  %60 = load ptr, ptr %9, align 8
  %61 = load ptr, ptr %6, align 8
  %62 = load i32, ptr %7, align 4
  %63 = load i32, ptr @hf_as_if_gen_controls, align 4
  %64 = load i32, ptr @ett_as_if_gen_controls, align 4
  %65 = call ptr @proto_tree_add_bitmask(ptr noundef %60, ptr noundef %61, i32 noundef %62, i32 noundef %63, i32 noundef %64, ptr noundef @dissect_as_if_general_body.v2_controls, i32 noundef -2147483648)
  %66 = load i32, ptr %7, align 4
  %67 = add i32 %66, 1
  store i32 %67, ptr %7, align 4
  %68 = load ptr, ptr %9, align 8
  %69 = load i32, ptr @hf_as_if_gen_formattype, align 4
  %70 = load ptr, ptr %6, align 8
  %71 = load i32, ptr %7, align 4
  %72 = call ptr @proto_tree_add_item(ptr noundef %68, i32 noundef %69, ptr noundef %70, i32 noundef %71, i32 noundef 1, i32 noundef -2147483648)
  %73 = load ptr, ptr %6, align 8
  %74 = load i32, ptr %7, align 4
  %75 = call zeroext i8 @tvb_get_uint8(ptr noundef %73, i32 noundef %74)
  store i8 %75, ptr %12, align 1
  %76 = load i32, ptr %7, align 4
  %77 = add i32 %76, 1
  store i32 %77, ptr %7, align 4
  %78 = load i8, ptr %12, align 1
  %79 = zext i8 %78 to i32
  switch i32 %79, label %84 [
    i32 1, label %80
    i32 2, label %81
    i32 3, label %82
    i32 4, label %83
  ]

80:                                               ; preds = %52
  store ptr @dissect_as_if_general_body.v2_formats_type_i, ptr %13, align 8
  br label %85

81:                                               ; preds = %52
  store ptr @dissect_as_if_general_body.v2_formats_type_ii, ptr %13, align 8
  br label %85

82:                                               ; preds = %52
  store ptr @dissect_as_if_general_body.v2_formats_type_iii, ptr %13, align 8
  br label %85

83:                                               ; preds = %52
  store ptr @dissect_as_if_general_body.v2_formats_type_iv, ptr %13, align 8
  br label %85

84:                                               ; preds = %52
  store ptr null, ptr %13, align 8
  br label %85

85:                                               ; preds = %84, %83, %82, %81, %80
  %86 = load ptr, ptr %13, align 8
  %87 = icmp ne ptr %86, null
  br i1 %87, label %88, label %96

88:                                               ; preds = %85
  %89 = load ptr, ptr %9, align 8
  %90 = load ptr, ptr %6, align 8
  %91 = load i32, ptr %7, align 4
  %92 = load i32, ptr @hf_as_if_gen_formats, align 4
  %93 = load i32, ptr @ett_as_if_gen_formats, align 4
  %94 = load ptr, ptr %13, align 8
  %95 = call ptr @proto_tree_add_bitmask(ptr noundef %89, ptr noundef %90, i32 noundef %91, i32 noundef %92, i32 noundef %93, ptr noundef %94, i32 noundef -2147483648)
  br label %102

96:                                               ; preds = %85
  %97 = load ptr, ptr %9, align 8
  %98 = load i32, ptr @hf_as_if_gen_formats, align 4
  %99 = load ptr, ptr %6, align 8
  %100 = load i32, ptr %7, align 4
  %101 = call ptr @proto_tree_add_item(ptr noundef %97, i32 noundef %98, ptr noundef %99, i32 noundef %100, i32 noundef 4, i32 noundef -2147483648)
  br label %102

102:                                              ; preds = %96, %88
  %103 = load i32, ptr %7, align 4
  %104 = add i32 %103, 4
  store i32 %104, ptr %7, align 4
  %105 = load ptr, ptr %9, align 8
  %106 = load i32, ptr @hf_as_if_gen_nrchannels, align 4
  %107 = load ptr, ptr %6, align 8
  %108 = load i32, ptr %7, align 4
  %109 = call ptr @proto_tree_add_item(ptr noundef %105, i32 noundef %106, ptr noundef %107, i32 noundef %108, i32 noundef 1, i32 noundef -2147483648)
  %110 = load i32, ptr %7, align 4
  %111 = add i32 %110, 1
  store i32 %111, ptr %7, align 4
  %112 = load ptr, ptr %9, align 8
  %113 = load ptr, ptr %6, align 8
  %114 = load i32, ptr %7, align 4
  %115 = load i32, ptr @hf_as_if_gen_bmchannelconfig, align 4
  %116 = load i32, ptr @ett_as_if_gen_bmchannelconfig, align 4
  %117 = call ptr @proto_tree_add_bitmask(ptr noundef %112, ptr noundef %113, i32 noundef %114, i32 noundef %115, i32 noundef %116, ptr noundef @dissect_as_if_general_body.v2_channels, i32 noundef -2147483648)
  %118 = load i32, ptr %7, align 4
  %119 = add i32 %118, 4
  store i32 %119, ptr %7, align 4
  %120 = load ptr, ptr %9, align 8
  %121 = load i32, ptr @hf_as_if_gen_channelnames, align 4
  %122 = load ptr, ptr %6, align 8
  %123 = load i32, ptr %7, align 4
  %124 = call ptr @proto_tree_add_item(ptr noundef %120, i32 noundef %121, ptr noundef %122, i32 noundef %123, i32 noundef 1, i32 noundef -2147483648)
  %125 = load i32, ptr %7, align 4
  %126 = add i32 %125, 1
  store i32 %126, ptr %7, align 4
  call void @llvm.lifetime.end.p0(i64 8, ptr %13) #11
  call void @llvm.lifetime.end.p0(i64 1, ptr %12) #11
  br label %127

127:                                              ; preds = %102, %44
  br label %128

128:                                              ; preds = %127, %22
  %129 = load i32, ptr %7, align 4
  %130 = load i32, ptr %11, align 4
  %131 = sub i32 %129, %130
  call void @llvm.lifetime.end.p0(i64 4, ptr %11) #11
  ret i32 %131
}