; Function Attrs: null_pointer_is_valid sspstrong uwtable
define internal fastcc range(i32 0, 14) i32 @dissect_as_if_general_body(ptr noundef %0, ptr noundef %1, i16 %.40.val.8.val) unnamed_addr #1 {
  switch i16 %.40.val.8.val, label %35 [
    i16 0, label %3
    i16 32, label %10
  ]

3:                                                ; preds = %2
  %4 = load i32, ptr @hf_as_if_gen_term_link, align 4
  %5 = tail call ptr @proto_tree_add_item(ptr noundef %1, i32 noundef %4, ptr noundef %0, i32 noundef 3, i32 noundef 1, i32 noundef -2147483648)
  %6 = load i32, ptr @hf_as_if_gen_delay, align 4
  %7 = tail call ptr @proto_tree_add_item(ptr noundef %1, i32 noundef %6, ptr noundef %0, i32 noundef 4, i32 noundef 1, i32 noundef -2147483648)
  %8 = load i32, ptr @hf_as_if_gen_wformattag, align 4
  %9 = tail call ptr @proto_tree_add_item(ptr noundef %1, i32 noundef %8, ptr noundef %0, i32 noundef 5, i32 noundef 2, i32 noundef -2147483648)
  br label %35

10:                                               ; preds = %2
  %11 = load i32, ptr @hf_as_if_gen_term_link, align 4
  %12 = tail call ptr @proto_tree_add_item(ptr noundef %1, i32 noundef %11, ptr noundef %0, i32 noundef 3, i32 noundef 1, i32 noundef -2147483648)
  %13 = load i32, ptr @hf_as_if_gen_controls, align 4
  %14 = load i32, ptr @ett_as_if_gen_controls, align 4
  %15 = tail call ptr @proto_tree_add_bitmask(ptr noundef %1, ptr noundef %0, i32 noundef 4, i32 noundef %13, i32 noundef %14, ptr noundef nonnull @dissect_as_if_general_body.v2_controls, i32 noundef -2147483648)
  %16 = load i32, ptr @hf_as_if_gen_formattype, align 4
  %17 = tail call ptr @proto_tree_add_item(ptr noundef %1, i32 noundef %16, ptr noundef %0, i32 noundef 5, i32 noundef 1, i32 noundef -2147483648)
  %18 = tail call zeroext i8 @tvb_get_uint8(ptr noundef %0, i32 noundef 5)
  %switch.tableidx = add i8 %18, -1
  %19 = icmp ult i8 %switch.tableidx, 4
  br i1 %19, label %switch.lookup, label %24

switch.lookup:                                    ; preds = %10
  %20 = zext nneg i8 %switch.tableidx to i64
  %switch.gep = getelementptr inbounds nuw [4 x ptr], ptr @switch.table.dissect_as_if_general_body, i64 0, i64 %20
  %switch.load = load ptr, ptr %switch.gep, align 8
  %21 = load i32, ptr @hf_as_if_gen_formats, align 4
  %22 = load i32, ptr @ett_as_if_gen_formats, align 4
  %23 = tail call ptr @proto_tree_add_bitmask(ptr noundef %1, ptr noundef %0, i32 noundef 6, i32 noundef %21, i32 noundef %22, ptr noundef nonnull %switch.load, i32 noundef -2147483648)
  br label %27

24:                                               ; preds = %10
  %25 = load i32, ptr @hf_as_if_gen_formats, align 4
  %26 = tail call ptr @proto_tree_add_item(ptr noundef %1, i32 noundef %25, ptr noundef %0, i32 noundef 6, i32 noundef 4, i32 noundef -2147483648)
  br label %27

27:                                               ; preds = %24, %switch.lookup
  %28 = load i32, ptr @hf_as_if_gen_nrchannels, align 4
  %29 = tail call ptr @proto_tree_add_item(ptr noundef %1, i32 noundef %28, ptr noundef %0, i32 noundef 10, i32 noundef 1, i32 noundef -2147483648)
  %30 = load i32, ptr @hf_as_if_gen_bmchannelconfig, align 4
  %31 = load i32, ptr @ett_as_if_gen_bmchannelconfig, align 4
  %32 = tail call ptr @proto_tree_add_bitmask(ptr noundef %1, ptr noundef %0, i32 noundef 11, i32 noundef %30, i32 noundef %31, ptr noundef nonnull @dissect_as_if_general_body.v2_channels, i32 noundef -2147483648)
  %33 = load i32, ptr @hf_as_if_gen_channelnames, align 4
  %34 = tail call ptr @proto_tree_add_item(ptr noundef %1, i32 noundef %33, ptr noundef %0, i32 noundef 15, i32 noundef 1, i32 noundef -2147483648)
  br label %35

35:                                               ; preds = %2, %27, %3
  %.052 = phi i32 [ 4, %3 ], [ 13, %27 ], [ 0, %2 ]
  ret i32 %.052
}